target datalayout = "e-m:e-p270:32:32-p271:32:32-p272:64:64-i64:64-i128:128-f80:128-n8:16:32:64-S128"
target triple = "x86_64-pc-linux-gnu"

%struct.DdManager = type { %struct.DdNode, ptr, ptr, ptr, ptr, ptr, ptr, ptr, i32, i32, double, double, double, i32, i32, i32, i32, i32, i32, ptr, ptr, %struct.DdSubtable, i32, i32, i32, i32, i32, i32, i32, double, i32, i32, i32, ptr, i64, double, i32, ptr, ptr, ptr, ptr, ptr, ptr, ptr, i32, ptr, ptr, ptr, ptr, ptr, ptr, i32, i32, i32, double, i32, i32, i32, i32, double, double, i32, i32, i32, i32, i32, i32, i32, i32, i32, ptr, ptr, i32, i32, i32, i32, i32, i32, ptr, ptr, ptr, ptr, ptr, ptr, ptr, ptr, i32, i64, i64, i64, i32, i64, i64, double, double, double, double, double, double, i32, ptr, ptr, i64 }
%struct.DdNode = type { i32, i32, ptr, %union.anon, i64 }
%union.anon = type { %struct.DdChildren }
%struct.DdChildren = type { ptr, ptr }
%struct.DdSubtable = type { ptr, i32, i32, i32, i32, i32, i32, i32, i32, i32, i32, i32 }
%struct.MtrNode = type { i32, i32, i32, i32, ptr, ptr, ptr, ptr }

; Function Attrs: nounwind uwtable
define internal i32 @addMultiplicityGroups(ptr noundef %0, ptr noundef %1, i32 noundef %2, ptr noundef %3, ptr noundef %4) #0 {
  %6 = alloca i32, align 4
  %7 = alloca ptr, align 8
  %8 = alloca ptr, align 8
  %9 = alloca i32, align 4
  %10 = alloca ptr, align 8
  %11 = alloca ptr, align 8
  %12 = alloca i32, align 4
  %13 = alloca i32, align 4
  %14 = alloca i32, align 4
  %15 = alloca i32, align 4
  %16 = alloca i32, align 4
  %17 = alloca ptr, align 8
  %18 = alloca ptr, align 8
  store ptr %0, ptr %7, align 8
  store ptr %1, ptr %8, align 8
  store i32 %2, ptr %9, align 4
  store ptr %3, ptr %10, align 8
  store ptr %4, ptr %11, align 8
  %19 = load ptr, ptr %8, align 8
  store ptr %19, ptr %17, align 8
  br label %20

20:                                               ; preds = %121, %5
  %21 = load ptr, ptr %17, align 8
  %22 = icmp ne ptr %21, null
  br i1 %22, label %23, label %125

23:                                               ; preds = %20
  %24 = load ptr, ptr %17, align 8
  %25 = getelementptr inbounds %struct.MtrNode, ptr %24, i32 0, i32 5
  %26 = load ptr, ptr %25, align 8
  %27 = icmp ne ptr %26, null
  br i1 %27, label %28, label %37

28:                                               ; preds = %23
  %29 = load ptr, ptr %7, align 8
  %30 = load ptr, ptr %17, align 8
  %31 = getelementptr inbounds %struct.MtrNode, ptr %30, i32 0, i32 5
  %32 = load ptr, ptr %31, align 8
  %33 = load i32, ptr %9, align 4
  %34 = load ptr, ptr %10, align 8
  %35 = load ptr, ptr %11, align 8
  %36 = call i32 @addMultiplicityGroups(ptr noundef %29, ptr noundef %32, i32 noundef %33, ptr noundef %34, ptr noundef %35)
  br label %37

37:                                               ; preds = %28, %23
  %38 = load ptr, ptr %7, align 8
  %39 = getelementptr inbounds %struct.DdManager, ptr %38, i32 0, i32 38
  %40 = load ptr, ptr %39, align 8
  %41 = load ptr, ptr %17, align 8
  %42 = getelementptr inbounds %struct.MtrNode, ptr %41, i32 0, i32 3
  %43 = load i32, ptr %42, align 4
  %44 = zext i32 %43 to i64
  %45 = getelementptr inbounds i32, ptr %40, i64 %44
  %46 = load i32, ptr %45, align 4
  %47 = load i32, ptr %9, align 4
  %48 = sdiv i32 %46, %47
  store i32 %48, ptr %12, align 4
  %49 = load ptr, ptr %17, align 8
  %50 = getelementptr inbounds %struct.MtrNode, ptr %49, i32 0, i32 1
  %51 = load i32, ptr %50, align 4
  %52 = load i32, ptr %9, align 4
  %53 = udiv i32 %51, %52
  store i32 %53, ptr %14, align 4
  %54 = load i32, ptr %12, align 4
  %55 = load ptr, ptr %17, align 8
  %56 = getelementptr inbounds %struct.MtrNode, ptr %55, i32 0, i32 2
  %57 = load i32, ptr %56, align 8
  %58 = load i32, ptr %9, align 4
  %59 = udiv i32 %57, %58
  %60 = add i32 %54, %59
  store i32 %60, ptr %13, align 4
  %61 = load i32, ptr %12, align 4
  store i32 %61, ptr %15, align 4
  %62 = load i32, ptr %14, align 4
  store i32 %62, ptr %16, align 4
  br label %63

63:                                               ; preds = %118, %37
  %64 = load i32, ptr %15, align 4
  %65 = load i32, ptr %13, align 4
  %66 = icmp slt i32 %64, %65
  br i1 %66, label %67, label %121

67:                                               ; preds = %63
  %68 = load ptr, ptr %10, align 8
  %69 = load i32, ptr %15, align 4
  %70 = sext i32 %69 to i64
  %71 = getelementptr inbounds i8, ptr %68, i64 %70
  %72 = load i8, ptr %71, align 1
  %73 = sext i8 %72 to i32
  %74 = icmp eq i32 %73, 0
  br i1 %74, label %75, label %117

75:                                               ; preds = %67
  br label %76

76:                                               ; preds = %84, %75
  %77 = load ptr, ptr %11, align 8
  %78 = load i32, ptr %16, align 4
  %79 = sext i32 %78 to i64
  %80 = getelementptr inbounds i8, ptr %77, i64 %79
  %81 = load i8, ptr %80, align 1
  %82 = sext i8 %81 to i32
  %83 = icmp eq i32 %82, 1
  br i1 %83, label %84, label %87

84:                                               ; preds = %76
  %85 = load i32, ptr %16, align 4
  %86 = add nsw i32 %85, 1
  store i32 %86, ptr %16, align 4
  br label %76, !llvm.loop !18

87:                                               ; preds = %76
  %88 = load ptr, ptr %17, align 8
  %89 = load i32, ptr %16, align 4
  %90 = load i32, ptr %9, align 4
  %91 = mul nsw i32 %89, %90
  %92 = load i32, ptr %9, align 4
  %93 = call ptr @Mtr_MakeGroup(ptr noundef %88, i32 noundef %91, i32 noundef %92, i32 noundef 4)
  store ptr %93, ptr %18, align 8
  %94 = load ptr, ptr %18, align 8
  %95 = icmp eq ptr %94, null
  br i1 %95, label %96, label %97

96:                                               ; preds = %87
  store i32 0, ptr %6, align 4
  br label %126

97:                                               ; preds = %87
  %98 = load ptr, ptr %7, align 8
  %99 = getelementptr inbounds %struct.DdManager, ptr %98, i32 0, i32 40
  %100 = load ptr, ptr %99, align 8
  %101 = load i32, ptr %15, align 4
  %102 = load i32, ptr %9, align 4
  %103 = mul nsw i32 %101, %102
  %104 = sext i32 %103 to i64
  %105 = getelementptr inbounds i32, ptr %100, i64 %104
  %106 = load i32, ptr %105, align 4
  %107 = load ptr, ptr %18, align 8
  %108 = getelementptr inbounds %struct.MtrNode, ptr %107, i32 0, i32 3
  store i32 %106, ptr %108, align 4
  %109 = load ptr, ptr %10, align 8
  %110 = load i32, ptr %15, align 4
  %111 = sext i32 %110 to i64
  %112 = getelementptr inbounds i8, ptr %109, i64 %111
  store i8 1, ptr %112, align 1
  %113 = load ptr, ptr %11, align 8
  %114 = load i32, ptr %16, align 4
  %115 = sext i32 %114 to i64
  %116 = getelementptr inbounds i8, ptr %113, i64 %115
  store i8 1, ptr %116, align 1
  br label %117

117:                                              ; preds = %97, %67
  br label %118

118:                                              ; preds = %117
  %119 = load i32, ptr %15, align 4
  %120 = add nsw i32 %119, 1
  store i32 %120, ptr %15, align 4
  br label %63, !llvm.loop !19

121:                                              ; preds = %63
  %122 = load ptr, ptr %17, align 8
  %123 = getelementptr inbounds %struct.MtrNode, ptr %122, i32 0, i32 7
  %124 = load ptr, ptr %123, align 8
  store ptr %124, ptr %17, align 8
  br label %20, !llvm.loop !20

125:                                              ; preds = %20
  store i32 1, ptr %6, align 4
  br label %126

126:                                              ; preds = %125, %96
  %127 = load i32, ptr %6, align 4
  ret i32 %127
}