; Function Attrs: nounwind uwtable
define internal fastcc range(i32 0, 2) i32 @addMultiplicityGroups(ptr noundef readonly captures(none) %0, ptr noundef %1, i32 noundef range(i32 2, -2147483648) %2, ptr noundef nonnull captures(none) %3, ptr noundef nonnull captures(none) %4) unnamed_addr #0 {
  %.not50 = icmp eq ptr %1, null
  br i1 %.not50, label %.loopexit, label %.lr.ph53

.lr.ph53:                                         ; preds = %5
  %6 = getelementptr inbounds nuw i8, ptr %0, i64 320
  %7 = getelementptr inbounds nuw i8, ptr %0, i64 336
  %8 = zext nneg i32 %2 to i64
  br label %9

9:                                                ; preds = %.lr.ph53, %._crit_edge
  %.04051 = phi ptr [ %1, %.lr.ph53 ], [ %52, %._crit_edge ]
  %10 = getelementptr inbounds nuw i8, ptr %.04051, i64 24
  %11 = load ptr, ptr %10, align 8
  %.not45 = icmp eq ptr %11, null
  br i1 %.not45, label %14, label %12

12:                                               ; preds = %9
  %13 = tail call fastcc i32 @addMultiplicityGroups(ptr noundef %0, ptr noundef nonnull %11, i32 noundef %2, ptr noundef %3, ptr noundef %4)
  br label %14

14:                                               ; preds = %12, %9
  %15 = load ptr, ptr %6, align 8
  %16 = getelementptr inbounds nuw i8, ptr %.04051, i64 12
  %17 = load i32, ptr %16, align 4
  %18 = zext i32 %17 to i64
  %19 = getelementptr inbounds nuw i32, ptr %15, i64 %18
  %20 = load i32, ptr %19, align 4
  %21 = sdiv i32 %20, %2
  %22 = getelementptr inbounds nuw i8, ptr %.04051, i64 8
  %23 = load i32, ptr %22, align 8
  %24 = udiv i32 %23, %2
  %25 = add i32 %24, %21
  %26 = icmp slt i32 %21, %25
  br i1 %26, label %.lr.ph.preheader, label %._crit_edge

.lr.ph.preheader:                                 ; preds = %14
  %27 = getelementptr inbounds nuw i8, ptr %.04051, i64 4
  %28 = load i32, ptr %27, align 4
  %29 = udiv i32 %28, %2
  %30 = sext i32 %21 to i64
  br label %.lr.ph

.lr.ph:                                           ; preds = %.lr.ph.preheader, %50
  %indvars.iv56 = phi i64 [ %30, %.lr.ph.preheader ], [ %indvars.iv.next57, %50 ]
  %.04149 = phi i32 [ %29, %.lr.ph.preheader ], [ %.2, %50 ]
  %31 = getelementptr inbounds i8, ptr %3, i64 %indvars.iv56
  %32 = load i8, ptr %31, align 1
  %33 = icmp eq i8 %32, 0
  br i1 %33, label %.preheader.preheader, label %50

.preheader.preheader:                             ; preds = %.lr.ph
  %34 = zext i32 %.04149 to i64
  br label %.preheader

.preheader:                                       ; preds = %.preheader.preheader, %.preheader
  %indvars.iv = phi i64 [ %34, %.preheader.preheader ], [ %indvars.iv.next, %.preheader ]
  %35 = getelementptr inbounds nuw i8, ptr %4, i64 %indvars.iv
  %36 = load i8, ptr %35, align 1
  %37 = icmp eq i8 %36, 1
  %indvars.iv.next = add nuw nsw i64 %indvars.iv, 1
  br i1 %37, label %.preheader, label %38, !llvm.loop !17

38:                                               ; preds = %.preheader
  %39 = trunc nuw i64 %indvars.iv to i32
  %40 = mul nsw i32 %2, %39
  %41 = tail call ptr @Mtr_MakeGroup(ptr noundef nonnull %.04051, i32 noundef %40, i32 noundef %2, i32 noundef 4) #20
  %42 = icmp eq ptr %41, null
  br i1 %42, label %.loopexit, label %43

43:                                               ; preds = %38
  %44 = getelementptr inbounds nuw i8, ptr %4, i64 %indvars.iv
  %45 = load ptr, ptr %7, align 8
  %46 = mul nsw i64 %indvars.iv56, %8
  %47 = getelementptr inbounds i32, ptr %45, i64 %46
  %48 = load i32, ptr %47, align 4
  %49 = getelementptr inbounds nuw i8, ptr %41, i64 12
  store i32 %48, ptr %49, align 4
  store i8 1, ptr %31, align 1
  store i8 1, ptr %44, align 1
  br label %50

50:                                               ; preds = %.lr.ph, %43
  %.2 = phi i32 [ %39, %43 ], [ %.04149, %.lr.ph ]
  %indvars.iv.next57 = add nsw i64 %indvars.iv56, 1
  %lftr.wideiv = trunc i64 %indvars.iv.next57 to i32
  %exitcond.not = icmp eq i32 %25, %lftr.wideiv
  br i1 %exitcond.not, label %._crit_edge, label %.lr.ph, !llvm.loop !18

._crit_edge:                                      ; preds = %50, %14
  %51 = getelementptr inbounds nuw i8, ptr %.04051, i64 40
  %52 = load ptr, ptr %51, align 8
  %.not = icmp eq ptr %52, null
  br i1 %.not, label %.loopexit, label %9, !llvm.loop !19

.loopexit:                                        ; preds = %._crit_edge, %38, %5
  %.0 = phi i32 [ 1, %5 ], [ 0, %38 ], [ 1, %._crit_edge ]
  ret i32 %.0
}